; Function Attrs: mustprogress uwtable
define void @_ZN4LIEF5MachO4Hash5visitERKNS0_16RelocationObjectE(ptr noundef nonnull align 8 dereferenceable(64) %0, ptr noundef nonnull align 8 dereferenceable(64) %1) unnamed_addr #3 align 2 {
  %3 = load ptr, ptr %0, align 8
  %4 = getelementptr inbounds i8, ptr %3, i64 968
  %5 = load ptr, ptr %4, align 8
  tail call void %5(ptr noundef nonnull align 8 dereferenceable(64) %0, ptr noundef nonnull align 8 dereferenceable(56) %1)
  %6 = tail call noundef zeroext i1 @_ZNK4LIEF5MachO16RelocationObject12is_scatteredEv(ptr noundef nonnull align 8 dereferenceable(64) %1)
  %7 = zext i1 %6 to i64
  %8 = load ptr, ptr %0, align 8
  %9 = getelementptr inbounds i8, ptr %8, i64 1328
  %10 = load ptr, ptr %9, align 8
  %11 = tail call noundef nonnull align 8 dereferenceable(64) ptr %10(ptr noundef nonnull align 8 dereferenceable(64) %0, i64 noundef %7)
  %12 = tail call noundef zeroext i1 @_ZNK4LIEF5MachO16RelocationObject12is_scatteredEv(ptr noundef nonnull align 8 dereferenceable(64) %1)
  br i1 %12, label %13, label %20

13:                                               ; preds = %2
  %14 = tail call noundef i32 @_ZNK4LIEF5MachO16RelocationObject5valueEv(ptr noundef nonnull align 8 dereferenceable(64) %1)
  %15 = sext i32 %14 to i64
  %16 = load ptr, ptr %0, align 8
  %17 = getelementptr inbounds i8, ptr %16, i64 1328
  %18 = load ptr, ptr %17, align 8
  %19 = tail call noundef nonnull align 8 dereferenceable(64) ptr %18(ptr noundef nonnull align 8 dereferenceable(64) %0, i64 noundef %15)
  br label %20

20:                                               ; preds = %13, %2
  ret void
}